target datalayout = "e-m:e-p270:32:32-p271:32:32-p272:64:64-i64:64-i128:128-f80:128-n8:16:32:64-S128"
target triple = "x86_64-pc-linux-gnu"

%struct.IndexScanDescData = type { ptr, ptr, ptr, i32, i32, ptr, ptr, i8, i8, i8, i8, i8, ptr, ptr, ptr, ptr, ptr, %struct.ItemPointerData, i8, ptr, i8, ptr, ptr, i8, ptr }
%struct.ItemPointerData = type { %struct.BlockIdData, i16 }
%struct.BlockIdData = type { i16, i16 }
%struct.IndexOrderByDistance = type { double, i8 }
%union.anon = type { double }
%union.anon.0 = type { float }

@.str.1 = private unnamed_addr constant [10 x i8] c"indexam.c\00", align 1
@.str.13 = private unnamed_addr constant [81 x i8] c"ORDER BY operator must return float8 or float4 if the distance function is lossy\00", align 1
@__func__.index_store_float8_orderby_distances = private unnamed_addr constant [37 x i8] c"index_store_float8_orderby_distances\00", align 1

; Function Attrs: inlinehint nounwind uwtable
define internal i64 @Int32GetDatum(i32 noundef %0) #3 {
  %2 = alloca i32, align 4
  store i32 %0, ptr %2, align 4
  %3 = load i32, ptr %2, align 4
  %4 = sext i32 %3 to i64
  ret i64 %4
}

; Function Attrs: inlinehint nounwind uwtable
define internal i64 @Int64GetDatum(i64 noundef %0) #3 {
  %2 = alloca i64, align 8
  store i64 %0, ptr %2, align 8
  %3 = load i64, ptr %2, align 8
  ret i64 %3
}

; Function Attrs: inlinehint nounwind uwtable
define internal i64 @Float4GetDatum(float noundef %0) #3 {
  %2 = alloca float, align 4
  %3 = alloca %union.anon.0, align 4
  store float %0, ptr %2, align 4
  call void @llvm.lifetime.start.p0(i64 4, ptr %3) #7
  %4 = load float, ptr %2, align 4
  store float %4, ptr %3, align 4
  %5 = load i32, ptr %3, align 4
  %6 = call i64 @Int32GetDatum(i32 noundef %5)
  call void @llvm.lifetime.end.p0(i64 4, ptr %3) #7
  ret i64 %6
}

; Function Attrs: inlinehint nounwind uwtable
define internal i64 @Float8GetDatum(double noundef %0) #3 {
  %2 = alloca double, align 8
  %3 = alloca %union.anon, align 8
  store double %0, ptr %2, align 8
  call void @llvm.lifetime.start.p0(i64 8, ptr %3) #7
  %4 = load double, ptr %2, align 8
  store double %4, ptr %3, align 8
  %5 = load i64, ptr %3, align 8
  %6 = call i64 @Int64GetDatum(i64 noundef %5)
  call void @llvm.lifetime.end.p0(i64 8, ptr %3) #7
  ret i64 %6
}

; Function Attrs: nounwind uwtable
define dso_local void @index_store_float8_orderby_distances(ptr noundef %0, ptr noundef %1, ptr noundef %2, i1 noundef zeroext %3) #0 {
  %5 = alloca ptr, align 8
  %6 = alloca ptr, align 8
  %7 = alloca ptr, align 8
  %8 = alloca i8, align 1
  %9 = alloca i32, align 4
  store ptr %0, ptr %5, align 8
  store ptr %1, ptr %6, align 8
  store ptr %2, ptr %7, align 8
  %10 = zext i1 %3 to i8
  store i8 %10, ptr %8, align 1
  call void @llvm.lifetime.start.p0(i64 4, ptr %9) #7
  %11 = load i8, ptr %8, align 1, !range !4, !noundef !5
  %12 = trunc i8 %11 to i1
  %13 = load ptr, ptr %5, align 8
  %14 = getelementptr inbounds nuw %struct.IndexScanDescData, ptr %13, i32 0, i32 23
  %15 = zext i1 %12 to i8
  store i8 %15, ptr %14, align 8
  store i32 0, ptr %9, align 4
  br label %16

16:                                               ; preds = %152, %4
  %17 = load i32, ptr %9, align 4
  %18 = load ptr, ptr %5, align 8
  %19 = getelementptr inbounds nuw %struct.IndexScanDescData, ptr %18, i32 0, i32 4
  %20 = load i32, ptr %19, align 4
  %21 = icmp slt i32 %17, %20
  br i1 %21, label %22, label %155

22:                                               ; preds = %16
  %23 = load ptr, ptr %6, align 8
  %24 = load i32, ptr %9, align 4
  %25 = sext i32 %24 to i64
  %26 = getelementptr inbounds i32, ptr %23, i64 %25
  %27 = load i32, ptr %26, align 4
  %28 = icmp eq i32 %27, 701
  br i1 %28, label %29, label %74

29:                                               ; preds = %22
  %30 = load ptr, ptr %7, align 8
  %31 = icmp ne ptr %30, null
  br i1 %31, label %32, label %60

32:                                               ; preds = %29
  %33 = load ptr, ptr %7, align 8
  %34 = load i32, ptr %9, align 4
  %35 = sext i32 %34 to i64
  %36 = getelementptr inbounds %struct.IndexOrderByDistance, ptr %33, i64 %35
  %37 = getelementptr inbounds nuw %struct.IndexOrderByDistance, ptr %36, i32 0, i32 1
  %38 = load i8, ptr %37, align 8, !range !4, !noundef !5
  %39 = trunc i8 %38 to i1
  br i1 %39, label %60, label %40

40:                                               ; preds = %32
  %41 = load ptr, ptr %7, align 8
  %42 = load i32, ptr %9, align 4
  %43 = sext i32 %42 to i64
  %44 = getelementptr inbounds %struct.IndexOrderByDistance, ptr %41, i64 %43
  %45 = getelementptr inbounds nuw %struct.IndexOrderByDistance, ptr %44, i32 0, i32 0
  %46 = load double, ptr %45, align 8
  %47 = call i64 @Float8GetDatum(double noundef %46)
  %48 = load ptr, ptr %5, align 8
  %49 = getelementptr inbounds nuw %struct.IndexScanDescData, ptr %48, i32 0, i32 21
  %50 = load ptr, ptr %49, align 8
  %51 = load i32, ptr %9, align 4
  %52 = sext i32 %51 to i64
  %53 = getelementptr inbounds i64, ptr %50, i64 %52
  store i64 %47, ptr %53, align 8
  %54 = load ptr, ptr %5, align 8
  %55 = getelementptr inbounds nuw %struct.IndexScanDescData, ptr %54, i32 0, i32 22
  %56 = load ptr, ptr %55, align 8
  %57 = load i32, ptr %9, align 4
  %58 = sext i32 %57 to i64
  %59 = getelementptr inbounds i8, ptr %56, i64 %58
  store i8 0, ptr %59, align 1
  br label %73

60:                                               ; preds = %32, %29
  %61 = load ptr, ptr %5, align 8
  %62 = getelementptr inbounds nuw %struct.IndexScanDescData, ptr %61, i32 0, i32 21
  %63 = load ptr, ptr %62, align 8
  %64 = load i32, ptr %9, align 4
  %65 = sext i32 %64 to i64
  %66 = getelementptr inbounds i64, ptr %63, i64 %65
  store i64 0, ptr %66, align 8
  %67 = load ptr, ptr %5, align 8
  %68 = getelementptr inbounds nuw %struct.IndexScanDescData, ptr %67, i32 0, i32 22
  %69 = load ptr, ptr %68, align 8
  %70 = load i32, ptr %9, align 4
  %71 = sext i32 %70 to i64
  %72 = getelementptr inbounds i8, ptr %69, i64 %71
  store i8 1, ptr %72, align 1
  br label %73

73:                                               ; preds = %60, %40
  br label %151

74:                                               ; preds = %22
  %75 = load ptr, ptr %6, align 8
  %76 = load i32, ptr %9, align 4
  %77 = sext i32 %76 to i64
  %78 = getelementptr inbounds i32, ptr %75, i64 %77
  %79 = load i32, ptr %78, align 4
  %80 = icmp eq i32 %79, 700
  br i1 %80, label %81, label %127

81:                                               ; preds = %74
  %82 = load ptr, ptr %7, align 8
  %83 = icmp ne ptr %82, null
  br i1 %83, label %84, label %113

84:                                               ; preds = %81
  %85 = load ptr, ptr %7, align 8
  %86 = load i32, ptr %9, align 4
  %87 = sext i32 %86 to i64
  %88 = getelementptr inbounds %struct.IndexOrderByDistance, ptr %85, i64 %87
  %89 = getelementptr inbounds nuw %struct.IndexOrderByDistance, ptr %88, i32 0, i32 1
  %90 = load i8, ptr %89, align 8, !range !4, !noundef !5
  %91 = trunc i8 %90 to i1
  br i1 %91, label %113, label %92

92:                                               ; preds = %84
  %93 = load ptr, ptr %7, align 8
  %94 = load i32, ptr %9, align 4
  %95 = sext i32 %94 to i64
  %96 = getelementptr inbounds %struct.IndexOrderByDistance, ptr %93, i64 %95
  %97 = getelementptr inbounds nuw %struct.IndexOrderByDistance, ptr %96, i32 0, i32 0
  %98 = load double, ptr %97, align 8
  %99 = fptrunc double %98 to float
  %100 = call i64 @Float4GetDatum(float noundef %99)
  %101 = load ptr, ptr %5, align 8
  %102 = getelementptr inbounds nuw %struct.IndexScanDescData, ptr %101, i32 0, i32 21
  %103 = load ptr, ptr %102, align 8
  %104 = load i32, ptr %9, align 4
  %105 = sext i32 %104 to i64
  %106 = getelementptr inbounds i64, ptr %103, i64 %105
  store i64 %100, ptr %106, align 8
  %107 = load ptr, ptr %5, align 8
  %108 = getelementptr inbounds nuw %struct.IndexScanDescData, ptr %107, i32 0, i32 22
  %109 = load ptr, ptr %108, align 8
  %110 = load i32, ptr %9, align 4
  %111 = sext i32 %110 to i64
  %112 = getelementptr inbounds i8, ptr %109, i64 %111
  store i8 0, ptr %112, align 1
  br label %126

113:                                              ; preds = %84, %81
  %114 = load ptr, ptr %5, align 8
  %115 = getelementptr inbounds nuw %struct.IndexScanDescData, ptr %114, i32 0, i32 21
  %116 = load ptr, ptr %115, align 8
  %117 = load i32, ptr %9, align 4
  %118 = sext i32 %117 to i64
  %119 = getelementptr inbounds i64, ptr %116, i64 %118
  store i64 0, ptr %119, align 8
  %120 = load ptr, ptr %5, align 8
  %121 = getelementptr inbounds nuw %struct.IndexScanDescData, ptr %120, i32 0, i32 22
  %122 = load ptr, ptr %121, align 8
  %123 = load i32, ptr %9, align 4
  %124 = sext i32 %123 to i64
  %125 = getelementptr inbounds i8, ptr %122, i64 %124
  store i8 1, ptr %125, align 1
  br label %126

126:                                              ; preds = %113, %92
  br label %150

127:                                              ; preds = %74
  %128 = load ptr, ptr %5, align 8
  %129 = getelementptr inbounds nuw %struct.IndexScanDescData, ptr %128, i32 0, i32 23
  %130 = load i8, ptr %129, align 8, !range !4, !noundef !5
  %131 = trunc i8 %130 to i1
  br i1 %131, label %132, label %143

132:                                              ; preds = %127
  br label %133

133:                                              ; preds = %132
  br i1 true, label %134, label %136

134:                                              ; preds = %133
  %135 = call zeroext i1 @errstart_cold(i32 noundef 21, ptr noundef null) #8
  br i1 %135, label %138, label %140

136:                                              ; preds = %133
  %137 = call zeroext i1 @errstart(i32 noundef 21, ptr noundef null)
  br i1 %137, label %138, label %140

138:                                              ; preds = %136, %134
  %139 = call i32 (ptr, ...) @errmsg_internal(ptr noundef @.str.13)
  call void @errfinish(ptr noundef @.str.1, i32 noundef 985, ptr noundef @__func__.index_store_float8_orderby_distances)
  br label %140

140:                                              ; preds = %138, %136, %134
  unreachable

141:                                              ; No predecessors!
  br label %142

142:                                              ; preds = %141
  br label %143

143:                                              ; preds = %142, %127
  %144 = load ptr, ptr %5, align 8
  %145 = getelementptr inbounds nuw %struct.IndexScanDescData, ptr %144, i32 0, i32 22
  %146 = load ptr, ptr %145, align 8
  %147 = load i32, ptr %9, align 4
  %148 = sext i32 %147 to i64
  %149 = getelementptr inbounds i8, ptr %146, i64 %148
  store i8 1, ptr %149, align 1
  br label %150

150:                                              ; preds = %143, %126
  br label %151

151:                                              ; preds = %150, %73
  br label %152

152:                                              ; preds = %151
  %153 = load i32, ptr %9, align 4
  %154 = add i32 %153, 1
  store i32 %154, ptr %9, align 4
  br label %16, !llvm.loop !6

155:                                              ; preds = %16
  call void @llvm.lifetime.end.p0(i64 4, ptr %9) #7
  ret void
}