; Function Attrs: nounwind uwtable
define dso_local void @index_store_float8_orderby_distances(ptr noundef captures(none) initializes((136, 137)) %0, ptr noundef readonly captures(none) %1, ptr noundef readonly captures(address_is_null) %2, i1 noundef zeroext %3) local_unnamed_addr #0 {
  %5 = zext i1 %3 to i8
  %6 = getelementptr inbounds nuw i8, ptr %0, i64 136
  store i8 %5, ptr %6, align 8
  %7 = getelementptr inbounds nuw i8, ptr %0, i64 28
  %8 = load i32, ptr %7, align 4
  %9 = icmp sgt i32 %8, 0
  br i1 %9, label %.lr.ph, label %._crit_edge

.lr.ph:                                           ; preds = %4
  %.not = icmp eq ptr %2, null
  %10 = getelementptr inbounds nuw i8, ptr %0, i64 120
  %11 = getelementptr inbounds nuw i8, ptr %0, i64 128
  br i1 %.not, label %.lr.ph.split.us.split.us, label %.lr.ph.split.split

.lr.ph.split.us.split.us:                         ; preds = %.lr.ph, %20
  %indvars.iv45 = phi i64 [ %indvars.iv.next46, %20 ], [ 0, %.lr.ph ]
  %12 = getelementptr inbounds nuw i32, ptr %1, i64 %indvars.iv45
  %13 = load i32, ptr %12, align 4
  %14 = and i32 %13, -2
  %switch = icmp eq i32 %14, 700
  br i1 %switch, label %.sink.split, label %15

15:                                               ; preds = %.lr.ph.split.us.split.us
  %16 = load i8, ptr %6, align 8, !range !5, !noundef !6
  %17 = trunc nuw i8 %16 to i1
  br i1 %17, label %.split.us, label %20

.sink.split:                                      ; preds = %.lr.ph.split.us.split.us
  %18 = load ptr, ptr %10, align 8
  %19 = getelementptr inbounds nuw i64, ptr %18, i64 %indvars.iv45
  store i64 0, ptr %19, align 8
  br label %20

20:                                               ; preds = %.sink.split, %15
  %21 = load ptr, ptr %11, align 8
  %22 = getelementptr inbounds nuw i8, ptr %21, i64 %indvars.iv45
  store i8 1, ptr %22, align 1
  %indvars.iv.next46 = add nuw nsw i64 %indvars.iv45, 1
  %23 = load i32, ptr %7, align 4
  %24 = sext i32 %23 to i64
  %25 = icmp slt i64 %indvars.iv.next46, %24
  br i1 %25, label %.lr.ph.split.us.split.us, label %._crit_edge, !llvm.loop !8

.lr.ph.split.split:                               ; preds = %.lr.ph, %52
  %indvars.iv = phi i64 [ %indvars.iv.next, %52 ], [ 0, %.lr.ph ]
  %26 = getelementptr inbounds nuw i32, ptr %1, i64 %indvars.iv
  %27 = load i32, ptr %26, align 4
  switch i32 %27, label %45 [
    i32 701, label %28
    i32 700, label %35
  ]

28:                                               ; preds = %.lr.ph.split.split
  %29 = getelementptr inbounds nuw %struct.IndexOrderByDistance, ptr %2, i64 %indvars.iv
  %30 = getelementptr inbounds nuw i8, ptr %29, i64 8
  %31 = load i8, ptr %30, align 8, !range !5, !noundef !6
  %32 = trunc nuw i8 %31 to i1
  br i1 %32, label %.sink.split55, label %33

33:                                               ; preds = %28
  %34 = load i64, ptr %29, align 8
  br label %.sink.split55

35:                                               ; preds = %.lr.ph.split.split
  %36 = getelementptr inbounds nuw %struct.IndexOrderByDistance, ptr %2, i64 %indvars.iv
  %37 = getelementptr inbounds nuw i8, ptr %36, i64 8
  %38 = load i8, ptr %37, align 8, !range !5, !noundef !6
  %39 = trunc nuw i8 %38 to i1
  br i1 %39, label %.sink.split55, label %40

40:                                               ; preds = %35
  %41 = load double, ptr %36, align 8
  %42 = fptrunc double %41 to float
  %43 = bitcast float %42 to i32
  %44 = sext i32 %43 to i64
  br label %.sink.split55

45:                                               ; preds = %.lr.ph.split.split
  %46 = load i8, ptr %6, align 8, !range !5, !noundef !6
  %47 = trunc nuw i8 %46 to i1
  br i1 %47, label %.split.us, label %52

.split.us:                                        ; preds = %45, %15
  %48 = tail call zeroext i1 @errstart_cold(i32 noundef 21, ptr noundef null) #8
  tail call void @llvm.assume(i1 %48)
  %49 = tail call i32 (ptr, ...) @errmsg_internal(ptr noundef nonnull @.str.13) #7
  tail call void @errfinish(ptr noundef nonnull @.str.1, i32 noundef 985, ptr noundef nonnull @__func__.index_store_float8_orderby_distances) #7
  unreachable

.sink.split55:                                    ; preds = %35, %28, %40, %33
  %.sink56 = phi i64 [ %34, %33 ], [ %44, %40 ], [ 0, %28 ], [ 0, %35 ]
  %.sink.ph = phi i8 [ 0, %33 ], [ 0, %40 ], [ 1, %28 ], [ 1, %35 ]
  %50 = load ptr, ptr %10, align 8
  %51 = getelementptr inbounds nuw i64, ptr %50, i64 %indvars.iv
  store i64 %.sink56, ptr %51, align 8
  br label %52

52:                                               ; preds = %.sink.split55, %45
  %.sink = phi i8 [ 1, %45 ], [ %.sink.ph, %.sink.split55 ]
  %53 = load ptr, ptr %11, align 8
  %54 = getelementptr inbounds nuw i8, ptr %53, i64 %indvars.iv
  store i8 %.sink, ptr %54, align 1
  %indvars.iv.next = add nuw nsw i64 %indvars.iv, 1
  %55 = load i32, ptr %7, align 4
  %56 = sext i32 %55 to i64
  %57 = icmp slt i64 %indvars.iv.next, %56
  br i1 %57, label %.lr.ph.split.split, label %._crit_edge, !llvm.loop !8

._crit_edge:                                      ; preds = %52, %20, %4
  ret void
}